; Function Attrs: mustprogress uwtable
define void @_ZN2cv12GComputation5applyEOSt6vectorINS_7GRunArgESaIS2_EEOS1_INS_4util7variantIJPNS_4UMatEPNS_3MatEPNS_4RMatEPNS_7Scalar_IdEEPNS_10MediaFrameENS_6detail9VectorRefENSJ_9OpaqueRefEEEESaISM_EEOS1_INS_11GCompileArgESaISQ_EE(ptr noundef nonnull align 8 dereferenceable(16) %0, ptr noundef nonnull align 8 dereferenceable(24) %1, ptr noundef nonnull align 8 dereferenceable(24) %2, ptr noundef nonnull align 8 dereferenceable(24) %3) local_unnamed_addr #3 align 2 personality ptr @__gxx_personality_v0 {
  %5 = alloca %"class.std::vector.7", align 8
  call void @llvm.lifetime.start.p0(i64 24, ptr nonnull %5) #26
  call void @_ZN2cv8descr_ofERKSt6vectorINS_7GRunArgESaIS1_EE(ptr dead_on_unwind nonnull writable sret(%"class.std::vector.7") align 8 %5, ptr noundef nonnull align 8 dereferenceable(24) %1)
  invoke void @_ZN2cv12GComputation9recompileEOSt6vectorINS_4util7variantIJNS2_9monostateENS_8GMatDescENS_11GScalarDescENS_10GArrayDescENS_11GOpaqueDescENS_10GFrameDescEEEESaISA_EEOS1_INS_11GCompileArgESaISE_EE(ptr noundef nonnull align 8 dereferenceable(16) %0, ptr noundef nonnull align 8 dereferenceable(24) %5, ptr noundef nonnull align 8 dereferenceable(24) %3)
          to label %6 unwind label %21

6:                                                ; preds = %4
  %7 = load ptr, ptr %5, align 8, !tbaa !153
  %8 = getelementptr inbounds nuw i8, ptr %5, i64 8
  %9 = load ptr, ptr %8, align 8, !tbaa !156
  %.not4.i.i.i.i = icmp eq ptr %7, %9
  br i1 %.not4.i.i.i.i, label %_ZSt8_DestroyIPN2cv4util7variantIJNS1_9monostateENS0_8GMatDescENS0_11GScalarDescENS0_10GArrayDescENS0_11GOpaqueDescENS0_10GFrameDescEEEES9_EvT_SB_RSaIT0_E.exit.i, label %.lr.ph.i.i.i.i

.lr.ph.i.i.i.i:                                   ; preds = %6, %_ZSt8_DestroyIN2cv4util7variantIJNS1_9monostateENS0_8GMatDescENS0_11GScalarDescENS0_10GArrayDescENS0_11GOpaqueDescENS0_10GFrameDescEEEEEvPT_.exit.i.i.i.i
  %.05.i.i.i.i = phi ptr [ %17, %_ZSt8_DestroyIN2cv4util7variantIJNS1_9monostateENS0_8GMatDescENS0_11GScalarDescENS0_10GArrayDescENS0_11GOpaqueDescENS0_10GFrameDescEEEEEvPT_.exit.i.i.i.i ], [ %7, %6 ]
  %10 = load i64, ptr %.05.i.i.i.i, align 8, !tbaa !127
  %11 = getelementptr inbounds nuw [6 x ptr], ptr @constinit.13, i64 0, i64 %10
  %12 = load ptr, ptr %11, align 8, !tbaa !45
  %13 = getelementptr inbounds nuw i8, ptr %.05.i.i.i.i, i64 8
  invoke void %12(ptr noundef nonnull %13)
          to label %_ZSt8_DestroyIN2cv4util7variantIJNS1_9monostateENS0_8GMatDescENS0_11GScalarDescENS0_10GArrayDescENS0_11GOpaqueDescENS0_10GFrameDescEEEEEvPT_.exit.i.i.i.i unwind label %14

14:                                               ; preds = %.lr.ph.i.i.i.i
  %15 = landingpad { ptr, i32 }
          catch ptr null
  %16 = extractvalue { ptr, i32 } %15, 0
  call void @__clang_call_terminate(ptr %16) #28
  unreachable

_ZSt8_DestroyIN2cv4util7variantIJNS1_9monostateENS0_8GMatDescENS0_11GScalarDescENS0_10GArrayDescENS0_11GOpaqueDescENS0_10GFrameDescEEEEEvPT_.exit.i.i.i.i: ; preds = %.lr.ph.i.i.i.i
  %17 = getelementptr inbounds nuw i8, ptr %.05.i.i.i.i, i64 56
  %.not.i.i.i.i = icmp eq ptr %17, %9
  br i1 %.not.i.i.i.i, label %_ZSt8_DestroyIPN2cv4util7variantIJNS1_9monostateENS0_8GMatDescENS0_11GScalarDescENS0_10GArrayDescENS0_11GOpaqueDescENS0_10GFrameDescEEEES9_EvT_SB_RSaIT0_E.exitthread-pre-split.i, label %.lr.ph.i.i.i.i, !llvm.loop !157

_ZSt8_DestroyIPN2cv4util7variantIJNS1_9monostateENS0_8GMatDescENS0_11GScalarDescENS0_10GArrayDescENS0_11GOpaqueDescENS0_10GFrameDescEEEES9_EvT_SB_RSaIT0_E.exitthread-pre-split.i: ; preds = %_ZSt8_DestroyIN2cv4util7variantIJNS1_9monostateENS0_8GMatDescENS0_11GScalarDescENS0_10GArrayDescENS0_11GOpaqueDescENS0_10GFrameDescEEEEEvPT_.exit.i.i.i.i
  %.pr.i = load ptr, ptr %5, align 8, !tbaa !153
  br label %_ZSt8_DestroyIPN2cv4util7variantIJNS1_9monostateENS0_8GMatDescENS0_11GScalarDescENS0_10GArrayDescENS0_11GOpaqueDescENS0_10GFrameDescEEEES9_EvT_SB_RSaIT0_E.exit.i

_ZSt8_DestroyIPN2cv4util7variantIJNS1_9monostateENS0_8GMatDescENS0_11GScalarDescENS0_10GArrayDescENS0_11GOpaqueDescENS0_10GFrameDescEEEES9_EvT_SB_RSaIT0_E.exit.i: ; preds = %_ZSt8_DestroyIPN2cv4util7variantIJNS1_9monostateENS0_8GMatDescENS0_11GScalarDescENS0_10GArrayDescENS0_11GOpaqueDescENS0_10GFrameDescEEEES9_EvT_SB_RSaIT0_E.exitthread-pre-split.i, %6
  %18 = phi ptr [ %.pr.i, %_ZSt8_DestroyIPN2cv4util7variantIJNS1_9monostateENS0_8GMatDescENS0_11GScalarDescENS0_10GArrayDescENS0_11GOpaqueDescENS0_10GFrameDescEEEES9_EvT_SB_RSaIT0_E.exitthread-pre-split.i ], [ %7, %6 ]
  %.not.i.i.i = icmp eq ptr %18, null
  br i1 %.not.i.i.i, label %_ZNSt6vectorIN2cv4util7variantIJNS1_9monostateENS0_8GMatDescENS0_11GScalarDescENS0_10GArrayDescENS0_11GOpaqueDescENS0_10GFrameDescEEEESaIS9_EED2Ev.exit, label %19

19:                                               ; preds = %_ZSt8_DestroyIPN2cv4util7variantIJNS1_9monostateENS0_8GMatDescENS0_11GScalarDescENS0_10GArrayDescENS0_11GOpaqueDescENS0_10GFrameDescEEEES9_EvT_SB_RSaIT0_E.exit.i
  call void @_ZdlPv(ptr noundef nonnull %18) #29
  br label %_ZNSt6vectorIN2cv4util7variantIJNS1_9monostateENS0_8GMatDescENS0_11GScalarDescENS0_10GArrayDescENS0_11GOpaqueDescENS0_10GFrameDescEEEESaIS9_EED2Ev.exit

_ZNSt6vectorIN2cv4util7variantIJNS1_9monostateENS0_8GMatDescENS0_11GScalarDescENS0_10GArrayDescENS0_11GOpaqueDescENS0_10GFrameDescEEEESaIS9_EED2Ev.exit: ; preds = %_ZSt8_DestroyIPN2cv4util7variantIJNS1_9monostateENS0_8GMatDescENS0_11GScalarDescENS0_10GArrayDescENS0_11GOpaqueDescENS0_10GFrameDescEEEES9_EvT_SB_RSaIT0_E.exit.i, %19
  call void @llvm.lifetime.end.p0(i64 24, ptr nonnull %5) #26
  %20 = load ptr, ptr %0, align 8, !tbaa !13
  call void @_ZN2cv9GCompiledclEOSt6vectorINS_7GRunArgESaIS2_EEOS1_INS_4util7variantIJPNS_4UMatEPNS_3MatEPNS_4RMatEPNS_7Scalar_IdEEPNS_10MediaFrameENS_6detail9VectorRefENSJ_9OpaqueRefEEEESaISM_EE(ptr noundef nonnull align 8 dereferenceable(16) %20, ptr noundef nonnull align 8 dereferenceable(24) %1, ptr noundef nonnull align 8 dereferenceable(24) %2)
  ret void

21:                                               ; preds = %4
  %22 = landingpad { ptr, i32 }
          cleanup
  call void @_ZNSt6vectorIN2cv4util7variantIJNS1_9monostateENS0_8GMatDescENS0_11GScalarDescENS0_10GArrayDescENS0_11GOpaqueDescENS0_10GFrameDescEEEESaIS9_EED2Ev(ptr noundef nonnull align 8 dereferenceable(24) %5) #26
  call void @llvm.lifetime.end.p0(i64 24, ptr nonnull %5) #26
  resume { ptr, i32 } %22
}